target datalayout = "e-m:e-p270:32:32-p271:32:32-p272:64:64-i64:64-i128:128-f80:128-n8:16:32:64-S128"
target triple = "x86_64-pc-linux-gnu"

%struct.Vec_Int_t_ = type { i32, i32, ptr }

@.str.45 = private unnamed_addr constant [21 x i8] c"Permuting %d and %d\0A\00", align 1

; Function Attrs: nounwind uwtable
define internal ptr @Vec_IntArray(ptr noundef %0) #0 {
  %2 = alloca ptr, align 8
  store ptr %0, ptr %2, align 8
  %3 = load ptr, ptr %2, align 8
  %4 = getelementptr inbounds %struct.Vec_Int_t_, ptr %3, i32 0, i32 2
  %5 = load ptr, ptr %4, align 8
  ret ptr %5
}

; Function Attrs: nounwind uwtable
define internal i32 @Vec_IntSize(ptr noundef %0) #0 {
  %2 = alloca ptr, align 8
  store ptr %0, ptr %2, align 8
  %3 = load ptr, ptr %2, align 8
  %4 = getelementptr inbounds %struct.Vec_Int_t_, ptr %3, i32 0, i32 1
  %5 = load i32, ptr %4, align 4
  ret i32 %5
}

; Function Attrs: nounwind uwtable
define void @Vec_IntPermute2(ptr noundef %0) #0 {
  %2 = alloca ptr, align 8
  %3 = alloca i32, align 4
  %4 = alloca i32, align 4
  %5 = alloca ptr, align 8
  %6 = alloca i32, align 4
  store ptr %0, ptr %2, align 8
  %7 = load ptr, ptr %2, align 8
  %8 = call i32 @Vec_IntSize(ptr noundef %7)
  store i32 %8, ptr %4, align 4
  %9 = load ptr, ptr %2, align 8
  %10 = call ptr @Vec_IntArray(ptr noundef %9)
  store ptr %10, ptr %5, align 8
  %11 = call i64 @time(ptr noundef null) #13
  %12 = trunc i64 %11 to i32
  call void @srand(i32 noundef %12) #13
  store i32 0, ptr %3, align 4
  br label %13

13:                                               ; preds = %49, %1
  %14 = load i32, ptr %3, align 4
  %15 = load i32, ptr %4, align 4
  %16 = sub nsw i32 %15, 1
  %17 = icmp slt i32 %14, %16
  br i1 %17, label %18, label %52

18:                                               ; preds = %13
  %19 = call i32 @rand() #13
  %20 = srem i32 %19, 3
  %21 = icmp eq i32 %20, 0
  br i1 %21, label %22, label %48

22:                                               ; preds = %18
  %23 = load i32, ptr %3, align 4
  %24 = load i32, ptr %3, align 4
  %25 = add nsw i32 %24, 1
  %26 = call i32 (ptr, ...) @printf(ptr noundef @.str.45, i32 noundef %23, i32 noundef %25)
  %27 = load ptr, ptr %5, align 8
  %28 = load i32, ptr %3, align 4
  %29 = sext i32 %28 to i64
  %30 = getelementptr inbounds i32, ptr %27, i64 %29
  %31 = load i32, ptr %30, align 4
  store i32 %31, ptr %6, align 4
  %32 = load ptr, ptr %5, align 8
  %33 = load i32, ptr %3, align 4
  %34 = add nsw i32 %33, 1
  %35 = sext i32 %34 to i64
  %36 = getelementptr inbounds i32, ptr %32, i64 %35
  %37 = load i32, ptr %36, align 4
  %38 = load ptr, ptr %5, align 8
  %39 = load i32, ptr %3, align 4
  %40 = sext i32 %39 to i64
  %41 = getelementptr inbounds i32, ptr %38, i64 %40
  store i32 %37, ptr %41, align 4
  %42 = load i32, ptr %6, align 4
  %43 = load ptr, ptr %5, align 8
  %44 = load i32, ptr %3, align 4
  %45 = add nsw i32 %44, 1
  %46 = sext i32 %45 to i64
  %47 = getelementptr inbounds i32, ptr %43, i64 %46
  store i32 %42, ptr %47, align 4
  br label %48

48:                                               ; preds = %22, %18
  br label %49

49:                                               ; preds = %48
  %50 = load i32, ptr %3, align 4
  %51 = add nsw i32 %50, 1
  store i32 %51, ptr %3, align 4
  br label %13, !llvm.loop !83

52:                                               ; preds = %13
  ret void
}